(dp0
S'defaultpath'
p1
V/home/yxl/Desktop/pythontest/\u6c14\u5b54\u9762\u79ef
p2
sS'recent'
p3
(lp4
V/home/yxl/Desktop/regine.jpeg
p5
aV/home/yxl/Desktop/pythontest/\u6c14\u5b54\u9762\u79ef/5-a.bmp
p6
aV/home/yxl/Desktop/pythontest/\u6c14\u5b54\u9762\u79ef/1-a.bmp
p7
aV/home/yxl/Desktop/pythontest/0310.jpg
p8
aV/home/yxl/Desktop/pythontest/\u6c14\u5b54\u9762\u79ef/12-a.bmp
p9
as.