(dp0
S'defaultpath'
p1
V/media/yxl/Software/myproject/python/imagepy/testdata/\u6c14\u6ce1
p2
sS'recent'
p3
(lp4
V/media/yxl/Software/myproject/python/imagepy/testdata/results.bmp
p5
aV/media/yxl/Software/myproject/python/imagepy/testdata/45-60-02.tif
p6
aV/home/yxl/Downloads/img.jpg
p7
aV/home/yxl/Desktop/test.png
p8
aV/media/yxl/Software/myproject/python/imagepy/testdata/buble_msk/mask-0006.png
p9
as.