(dp0
S'defaultpath'
p1
V/media/yxl/Software/myproject/python/imagepy/testdata
p2
sS'recent-units'
p3
(lp4
S'Recent'
p5
aV8.0 - pix
p6
aS'1.0 - pix'
p7
aV4.0 - pix
p8
aV5.0 - pix
p9
aV3.0 - pix
p10
asS'recent'
p11
(lp12
V/media/yxl/Software/myproject/python/imagepy/testdata/results.bmp
p13
as.