(dp0
S'defaultpath'
p1
V/media/yxl/Software/myproject/python/imagepy/testdata/picture
p2
sS'recent'
p3
(lp4
V/media/yxl/Software/myproject/python/imagepy/testdata/picture/Thumbs_025.bmp
p5
aV/media/yxl/Software/myproject/python/imagepy/testdata/results.bmp
p6
aV/media/yxl/Software/myproject/python/imagepy/testdata/45-60-02.tif
p7
aV/home/yxl/Downloads/img.jpg
p8
aV/home/yxl/Desktop/test.png
p9
as.