(dp0
S'defaultpath'
p1
V/Users/apple/Desktop/collor
p2
sS'recent-units'
p3
(lp4
S'1.0 - pix'
p5
aV7.0 - pix
p6
aV8.0 - pix
p7
aV11.0 - pix
p8
aV5.0 - pix
p9
asS'recent'
p10
(lp11
V/Users/apple/Desktop/7833FD914226E08E27047493AA69512B.jpg
p12
aV/Users/apple/Desktop/2358B83F5E2E8AC8A03FB14B8F7DA547.jpg
p13
aV/Users/apple/Desktop/QQ\u622a\u56fe20170507211328.png
p14
aV/Users/apple/Desktop/fiber.png
p15
aV/Users/apple/Desktop/001.jpg
p16
as.