(dp0
S'defaultpath'
p1
V/media/yxl/Software/myproject/python/imagepy/testdata
p2
sS'recent'
p3
(lp4
V/media/yxl/Software/myproject/python/imagepy/testdata/results.bmp
p5
aV/media/yxl/Software/myproject/python/imagepy/testdata/dem.jpg
p6
aV/home/yxl/Desktop/pythontest/a.png
p7
aV/home/yxl/Downloads/leather.jpg
p8
as.