(dp0
S'defaultpath'
p1
V/media/yxl/Software/myproject/python/imagepy/testdata
p2
sS'recent'
p3
(lp4
V/media/yxl/Software/myproject/python/imagepy/testdata/results.bmp
p5
aV/media/yxl/Software/myproject/python/imagepy/testdata/dem.jpg
p6
aV/media/yxl/Software/myproject/python/imagepy/testdata/cell.jpg
p7
aV/home/yxl/Desktop/test.png
p8
aV/media/yxl/Document/testImage/S/\u56fe\u50cf\u5904\u7406/Thumbs_000.bmp
p9
as.