(dp0
S'defaultpath'
p1
V/media/yxl/Software/myproject/python/imagepy/testdata
p2
sS'recent'
p3
(lp4
V/media/yxl/Software/myproject/python/imagepy/testdata/results.bmp
p5
aV/media/yxl/Software/myproject/python/imagepy/testdata/buble_msk/mask-0006.png
p6
aV/media/yxl/Software/myproject/python/imagepy/testdata/buble_msk/mask-0002.png
p7
aV/media/yxl/Software/myproject/python/imagepy/testdata/buble_msk/mask-0004.png
p8
aV/media/yxl/Software/myproject/python/imagepy/testdata/buble_msk/mask-0007.png
p9
as.