(dp0
S'defaultpath'
p1
V/media/yxl/Software/myproject/python/imagepy/testdata/reco
p2
sS'recent'
p3
(lp4
S'/media/yxl/0048-03F9/DSC_6942.JPG'
p5
aV/media/yxl/Software/myproject/python/imagepy/testdata/results.bmp
p6
aV/media/yxl/Software/myproject/python/imagepy/testdata/rgb/reco0020.jpg
p7
aV/media/yxl/Software/myproject/python/imagepy/testdata/rgb/reco0008.jpg
p8
aV/media/yxl/Software/myproject/python/imagepy/testdata/reco/252-tif-10004.png
p9
as.