(dp0
S'defaultpath'
p1
V/media/yxl/Software/myproject/python/imagepy/testdata
p2
sS'recent'
p3
(lp4
V/home/yxl/Desktop/SBD/P2200059.JPG
p5
aV/home/yxl/Desktop/SBD/P2200053.JPG
p6
aV/home/yxl/Desktop/SBD/P2200057.JPG
p7
aV/home/yxl/Desktop/SBD/P2200048.JPG
p8
aV/home/yxl/Desktop/SBD/P2200050.JPG
p9
as.