(dp0
S'defaultpath'
p1
V/media/yxl/Software/myproject/python/imagepy/testdata
p2
sS'recent'
p3
(lp4
V/media/yxl/Software/myproject/python/imagepy/testdata/45-60-02.tif
p5
aV/home/yxl/Downloads/img.jpg
p6
aV/home/yxl/Desktop/test.png
p7
aV/media/yxl/Software/myproject/python/imagepy/testdata/buble_msk/mask-0006.png
p8
aV/media/yxl/Software/myproject/python/imagepy/testdata/buble_msk/mask-0003.png
p9
as.