(dp0
S'defaultpath'
p1
V/media/yxl/Software/myproject/python/imagepy/testdata/reco
p2
sS'recent'
p3
(lp4
V/media/yxl/Software/myproject/python/imagepy/testdata/reco/252-tif-10006.png
p5
aV/media/yxl/Software/myproject/python/imagepy/testdata/reco/252-tif-10003.png
p6
aV/media/yxl/Software/myproject/python/imagepy/testdata/results.bmp
p7
aV/media/yxl/Software/myproject/python/imagepy/testdata/buble_msk/mask-0006.png
p8
aV/media/yxl/Software/myproject/python/imagepy/testdata/buble_msk/mask-0002.png
p9
as.