(dp0
S'defaultpath'
p1
V/Users/apple/Desktop
p2
sS'recent-units'
p3
(lp4
V7.0 - pix
p5
aV8.0 - pix
p6
aS'1.0 - pix'
p7
aV11.0 - pix
p8
aV5.0 - pix
p9
asS'recent'
p10
(lp11
V/Users/apple/Desktop/demo.png
p12
aV/Users/apple/Desktop/4B58C046254A97161FAF73FC108A54A8.jpg
p13
aV/Users/apple/Desktop/j1.png
p14
aV/home/yxl/Desktop/regine.jpeg
p15
aV/Users/apple/Desktop/453315fff6b2c7c6014e788e03a2561c998359b788aabc574a18f7c75863877f4e80d11c6183f75cf1a2d3504e2568f09e3232bb7fff1f0c02e995cd0bfc7015.jpeg
p16
as.