(dp0
S'defaultpath'
p1
V/Users/apple/Desktop
p2
sS'recent-units'
p3
(lp4
S'Recent'
p5
aV8.0 - pix
p6
aS'1.0 - pix'
p7
aV4.0 - pix
p8
aV5.0 - pix
p9
aV3.0 - pix
p10
asS'recent'
p11
(lp12
V/Users/apple/Desktop/Cache_-77558cf08c00b227..jpg
p13
aV/Users/apple/Desktop/msk2.png
p14
aV/Users/apple/Desktop/msk.png
p15
aV/Users/apple/Desktop/bin.png
p16
aV/media/yxl/Software/myproject/python/imagepy/testdata/results.bmp
p17
as.