(dp0
Vdefaultpath
p1
V/home/auss/Projects/MyGithub/ImageJ/resources/images
p2
sVb
p3
(lp4
L1L
aL2L
aL3L
asVrecent
p5
(lp6
V/home/auss/Pictures/test.bmp
p7
aV/home/auss/Projects/MyGithub/ImageJ/resources/images/AuPbSn40.jpg
p8
as.