(dp0
S'defaultpath'
p1
V/Users/apple/Desktop
p2
sS'recent-units'
p3
(lp4
V7.0 - pix
p5
aV8.0 - pix
p6
aS'1.0 - pix'
p7
aV11.0 - pix
p8
aV5.0 - pix
p9
asS'recent'
p10
(lp11
V/Users/apple/Desktop/\u672a\u547d\u540d.png
p12
aV/Users/apple/Documents/imagepy/\u89c6\u7f51\u819c\u6d4b\u91cf/e2_8bit0505.bmp
p13
aV/Users/apple/Desktop/fiber.png
p14
aV/Users/apple/Desktop/1_i062.tif
p15
aV/Users/apple/Desktop/77ABA045433A87C5F6D7FFF6F2D19DC7.jpg
p16
as.