(dp0
S'defaultpath'
p1
V/media/yxl/Software/myproject/python/imagepy/testdata/reco
p2
sS'recent'
p3
(lp4
V/home/yxl/Desktop/kx.png
p5
aV/home/yxl/Desktop/0310.jpg
p6
aV/home/yxl/Desktop/ske.png
p7
aV/home/yxl/Desktop/gra.png
p8
aV/media/yxl/Software/myproject/python/imagepy/testdata/reco/252-tif-10006.png
p9
as.