(dp0
S'defaultpath'
p1
V/media/yxl/Software/myproject/python/imagepy/testdata/buble_msk
p2
sS'recent'
p3
(lp4
V/media/yxl/Software/myproject/python/imagepy/testdata/buble_msk/mask-0000.png
p5
aV/home/yxl/Desktop/kx.png
p6
aV/home/yxl/Desktop/0310.jpg
p7
aV/home/yxl/Desktop/ske.png
p8
aV/home/yxl/Desktop/gra.png
p9
as.